; Function Attrs: mustprogress nofree norecurse nosync nounwind willreturn memory(argmem: readwrite, inaccessiblemem: readwrite) uwtable
define void @_ZN7rocksdb18WritableFileWriter16PrepareIOOptionsERKNS_12WriteOptionsERNS_9IOOptionsE(ptr dead_on_unwind noalias writable writeonly sret(%"class.rocksdb::IOStatus") align 8 captures(none) initializes((0, 6), (8, 16)) %0, ptr noundef nonnull readonly align 8 captures(none) dereferenceable(25) %1, ptr noundef nonnull writeonly align 8 captures(none) dereferenceable(84) initializes((12, 16), (83, 84)) %2) local_unnamed_addr #12 align 2 personality ptr @__gxx_personality_v0 {
  tail call void @llvm.experimental.noalias.scope.decl(metadata !322)
  %4 = getelementptr inbounds nuw i8, ptr %1, i64 8
  %5 = load i32, ptr %4, align 8, !tbaa !325, !noalias !322
  %6 = getelementptr inbounds nuw i8, ptr %2, i64 12
  store i32 %5, ptr %6, align 4, !tbaa !210, !noalias !322
  %7 = getelementptr inbounds nuw i8, ptr %1, i64 24
  %8 = load i8, ptr %7, align 8, !tbaa !327, !noalias !322
  %9 = getelementptr inbounds nuw i8, ptr %2, i64 83
  store i8 %8, ptr %9, align 1, !tbaa !166, !noalias !322
  store i8 0, ptr %0, align 8, !tbaa !27, !alias.scope !328
  %10 = getelementptr inbounds nuw i8, ptr %0, i64 1
  store i8 0, ptr %10, align 1, !tbaa !38, !alias.scope !328
  %11 = getelementptr inbounds nuw i8, ptr %0, i64 2
  %12 = getelementptr inbounds nuw i8, ptr %0, i64 8
  store ptr null, ptr %12, align 8, !tbaa !181, !alias.scope !328
  store i32 0, ptr %11, align 2, !alias.scope !328
  ret void
}